target datalayout = "e-m:e-p270:32:32-p271:32:32-p272:64:64-i64:64-i128:128-f80:128-n8:16:32:64-S128"
target triple = "x86_64-pc-linux-gnu"

%class.pb2bv_model_converter = type { %class.model_converter.base, ptr, %class.svector }
%class.model_converter.base = type <{ %class.converter.base, [4 x i8], ptr, i8 }>
%class.converter.base = type <{ ptr, i32 }>
%class.svector = type { %class.vector }
%class.vector = type { ptr }
%class.model_converter = type <{ %class.converter.base, [4 x i8], ptr, i8, [7 x i8] }>
%class.converter = type <{ ptr, i32, [4 x i8] }>

@_ZTV15model_converter = external unnamed_addr constant { [13 x ptr] }, align 8
@_ZTV9converter = linkonce_odr hidden unnamed_addr constant { [6 x ptr] } { [6 x ptr] [ptr null, ptr @_ZTI9converter, ptr @_ZN9converterD2Ev, ptr @_ZN9converterD0Ev, ptr @_ZN9converter6cancelEv, ptr @__cxa_pure_virtual] }, comdat, align 8

; Function Attrs: mustprogress nounwind uwtable
define linkonce_odr hidden void @_ZN6vectorISt4pairIP9func_declS2_ELb0EjEC2Ev(ptr noundef nonnull align 8 dereferenceable(8) %0) unnamed_addr #6 comdat align 2 {
  %2 = alloca ptr, align 8
  store ptr %0, ptr %2, align 8, !tbaa !49
  %3 = load ptr, ptr %2, align 8
  %4 = getelementptr inbounds nuw %class.vector, ptr %3, i32 0, i32 0
  store ptr null, ptr %4, align 8, !tbaa !52
  ret void
}

; Function Attrs: mustprogress nounwind uwtable
define linkonce_odr hidden void @_ZN9converterC2Ev(ptr noundef nonnull align 8 dereferenceable(12) %0) unnamed_addr #6 comdat align 2 {
  %2 = alloca ptr, align 8
  store ptr %0, ptr %2, align 8, !tbaa !68
  %3 = load ptr, ptr %2, align 8
  store ptr getelementptr inbounds inrange(-16, 32) ({ [6 x ptr] }, ptr @_ZTV9converter, i32 0, i32 0, i32 2), ptr %3, align 8, !tbaa !10
  %4 = getelementptr inbounds nuw %class.converter, ptr %3, i32 0, i32 1
  store i32 0, ptr %4, align 8, !tbaa !180
  ret void
}

; Function Attrs: mustprogress nounwind uwtable
define linkonce_odr hidden void @_ZN7svectorISt4pairIP9func_declS2_EjEC2Ev(ptr noundef nonnull align 8 dereferenceable(8) %0) unnamed_addr #6 comdat align 2 {
  %2 = alloca ptr, align 8
  store ptr %0, ptr %2, align 8, !tbaa !21
  %3 = load ptr, ptr %2, align 8
  call void @_ZN6vectorISt4pairIP9func_declS2_ELb0EjEC2Ev(ptr noundef nonnull align 8 dereferenceable(8) %3) #3
  ret void
}

; Function Attrs: inlinehint mustprogress uwtable
define linkonce_odr hidden void @_ZN15model_converterC2Ev(ptr noundef nonnull align 8 dereferenceable(25) %0) unnamed_addr #5 comdat align 2 {
  %2 = alloca ptr, align 8
  store ptr %0, ptr %2, align 8, !tbaa !12
  %3 = load ptr, ptr %2, align 8
  call void @_ZN9converterC2Ev(ptr noundef nonnull align 8 dereferenceable(12) %3)
  store ptr getelementptr inbounds inrange(-16, 88) ({ [13 x ptr] }, ptr @_ZTV15model_converter, i32 0, i32 0, i32 2), ptr %3, align 8, !tbaa !10
  %4 = getelementptr inbounds nuw %class.model_converter, ptr %3, i32 0, i32 2
  store ptr null, ptr %4, align 8, !tbaa !14
  %5 = getelementptr inbounds nuw %class.model_converter, ptr %3, i32 0, i32 3
  store i8 1, ptr %5, align 8, !tbaa !20
  ret void
}

; Function Attrs: mustprogress uwtable
define hidden void @_ZN21pb2bv_model_converterC2ER11ast_manager(ptr noundef nonnull align 8 dereferenceable(48) %0, ptr noundef nonnull align 8 dereferenceable(976) %1) unnamed_addr #4 align 2 {
  %3 = alloca ptr, align 8
  %4 = alloca ptr, align 8
  store ptr %0, ptr %3, align 8, !tbaa !3
  store ptr %1, ptr %4, align 8, !tbaa !8
  %5 = load ptr, ptr %3, align 8
  call void @_ZN15model_converterC2Ev(ptr noundef nonnull align 8 dereferenceable(25) %5)
  store ptr getelementptr inbounds inrange(-16, 88) ({ [13 x ptr] }, ptr @_ZTV21pb2bv_model_converter, i32 0, i32 0, i32 2), ptr %5, align 8, !tbaa !10
  %6 = getelementptr inbounds nuw %class.pb2bv_model_converter, ptr %5, i32 0, i32 1
  %7 = load ptr, ptr %4, align 8, !tbaa !8
  store ptr %7, ptr %6, align 8, !tbaa !8
  %8 = getelementptr inbounds nuw %class.pb2bv_model_converter, ptr %5, i32 0, i32 2
  call void @_ZN7svectorISt4pairIP9func_declS2_EjEC2Ev(ptr noundef nonnull align 8 dereferenceable(8) %8) #3
  ret void
}