; Function Attrs: mustprogress nofree norecurse nosync nounwind willreturn memory(argmem: write) uwtable
define hidden void @_ZN21pb2bv_model_converterC2ER11ast_manager(ptr noundef nonnull writeonly align 8 captures(none) dereferenceable(48) initializes((0, 12), (16, 25), (32, 48)) %0, ptr noundef nonnull align 8 dereferenceable(976) %1) unnamed_addr #3 align 2 {
  %3 = getelementptr inbounds nuw i8, ptr %0, i64 8
  store i32 0, ptr %3, align 8, !tbaa !3
  %4 = getelementptr inbounds nuw i8, ptr %0, i64 16
  store ptr null, ptr %4, align 8, !tbaa !8
  %5 = getelementptr inbounds nuw i8, ptr %0, i64 24
  store i8 1, ptr %5, align 8, !tbaa !13
  store ptr getelementptr inbounds nuw inrange(-16, 88) (i8, ptr @_ZTV21pb2bv_model_converter, i64 16), ptr %0, align 8, !tbaa !14
  %6 = getelementptr inbounds nuw i8, ptr %0, i64 32
  store ptr %1, ptr %6, align 8, !tbaa !16
  %7 = getelementptr inbounds nuw i8, ptr %0, i64 40
  store ptr null, ptr %7, align 8, !tbaa !18
  ret void
}